target datalayout = "e-m:e-p270:32:32-p271:32:32-p272:64:64-i64:64-i128:128-f80:128-n8:16:32:64-S128"
target triple = "x86_64-pc-linux-gnu"

%struct._sapi_module_struct = type { ptr, ptr, ptr, ptr, ptr, ptr, ptr, ptr, ptr, ptr, ptr, ptr, ptr, ptr, ptr, ptr, ptr, ptr, ptr, ptr, ptr, ptr, ptr, ptr, i32, i32, ptr, ptr, ptr, ptr, ptr, ptr, i32, ptr, ptr, ptr }
%struct._sapi_globals_struct = type { ptr, %struct.sapi_request_info, %struct.sapi_headers_struct, i64, i8, i8, %struct.stat, ptr, ptr, ptr, i64, i32, i8, double, %struct._zend_array, %struct._zval_struct, %struct._zend_fcall_info_cache, %struct.sapi_request_parse_body_context }
%struct.sapi_request_info = type { ptr, ptr, ptr, i64, ptr, ptr, ptr, ptr, i8, i8, i8, ptr, ptr, ptr, ptr, ptr, ptr, ptr, i32, i32, ptr, i32 }
%struct.sapi_headers_struct = type { %struct._zend_llist, i32, i8, ptr, ptr }
%struct._zend_llist = type { ptr, ptr, i64, i64, ptr, i8, ptr }
%struct.stat = type { i64, i64, i64, i32, i32, i32, i32, i64, i64, i64, i64, %struct.timespec, %struct.timespec, %struct.timespec, [3 x i64] }
%struct.timespec = type { i64, i64 }
%struct._zend_array = type { %struct._zend_refcounted_h, %union.anon.0, i32, %union.anon.1, i32, i32, i32, i32, i64, ptr }
%struct._zend_refcounted_h = type { i32, %union.anon }
%union.anon = type { i32 }
%union.anon.0 = type { i32 }
%union.anon.1 = type { ptr }
%struct._zval_struct = type { %union._zend_value, %union.anon.3, %union.anon.6 }
%union._zend_value = type { i64 }
%union.anon.3 = type { i32 }
%union.anon.6 = type { i32 }
%struct._zend_fcall_info_cache = type { ptr, ptr, ptr, ptr, ptr }
%struct.sapi_request_parse_body_context = type { i8, [5 x %struct.anon.7] }
%struct.anon.7 = type { i8, i64 }
%struct.sapi_header_struct = type { ptr, i64 }
%struct._zend_llist_element = type { ptr, ptr, [1 x i8] }

@sapi_module = dso_local global %struct._sapi_module_struct zeroinitializer, align 8
@sapi_globals = dso_local global %struct._sapi_globals_struct zeroinitializer, align 8

; Function Attrs: nounwind uwtable
define dso_local void @sapi_free_header(ptr noundef %0) #0 {
  %2 = alloca ptr, align 8
  store ptr %0, ptr %2, align 8, !tbaa !16
  %3 = load ptr, ptr %2, align 8, !tbaa !16
  %4 = getelementptr inbounds nuw %struct.sapi_header_struct, ptr %3, i32 0, i32 0
  %5 = load ptr, ptr %4, align 8, !tbaa !21
  call void @_efree(ptr noundef %5)
  ret void
}

; Function Attrs: nounwind uwtable
define internal void @sapi_remove_header(ptr noundef %0, ptr noundef %1, i64 noundef %2) #0 {
  %4 = alloca ptr, align 8
  %5 = alloca ptr, align 8
  %6 = alloca i64, align 8
  %7 = alloca ptr, align 8
  %8 = alloca ptr, align 8
  %9 = alloca ptr, align 8
  store ptr %0, ptr %4, align 8, !tbaa !150
  store ptr %1, ptr %5, align 8, !tbaa !15
  store i64 %2, ptr %6, align 8, !tbaa !95
  call void @llvm.lifetime.start.p0(i64 8, ptr %7) #15
  call void @llvm.lifetime.start.p0(i64 8, ptr %8) #15
  call void @llvm.lifetime.start.p0(i64 8, ptr %9) #15
  %10 = load ptr, ptr %4, align 8, !tbaa !150
  %11 = getelementptr inbounds nuw %struct._zend_llist, ptr %10, i32 0, i32 0
  %12 = load ptr, ptr %11, align 8, !tbaa !152
  store ptr %12, ptr %9, align 8, !tbaa !153
  br label %13

13:                                               ; preds = %82, %3
  %14 = load ptr, ptr %9, align 8, !tbaa !153
  %15 = icmp ne ptr %14, null
  br i1 %15, label %16, label %84

16:                                               ; preds = %13
  %17 = load ptr, ptr %9, align 8, !tbaa !153
  %18 = getelementptr inbounds nuw %struct._zend_llist_element, ptr %17, i32 0, i32 2
  %19 = getelementptr inbounds [1 x i8], ptr %18, i64 0, i64 0
  store ptr %19, ptr %7, align 8, !tbaa !16
  %20 = load ptr, ptr %9, align 8, !tbaa !153
  %21 = getelementptr inbounds nuw %struct._zend_llist_element, ptr %20, i32 0, i32 0
  %22 = load ptr, ptr %21, align 8, !tbaa !154
  store ptr %22, ptr %8, align 8, !tbaa !153
  %23 = load ptr, ptr %7, align 8, !tbaa !16
  %24 = getelementptr inbounds nuw %struct.sapi_header_struct, ptr %23, i32 0, i32 1
  %25 = load i64, ptr %24, align 8, !tbaa !113
  %26 = load i64, ptr %6, align 8, !tbaa !95
  %27 = icmp ugt i64 %25, %26
  br i1 %27, label %28, label %82

28:                                               ; preds = %16
  %29 = load ptr, ptr %7, align 8, !tbaa !16
  %30 = getelementptr inbounds nuw %struct.sapi_header_struct, ptr %29, i32 0, i32 0
  %31 = load ptr, ptr %30, align 8, !tbaa !21
  %32 = load i64, ptr %6, align 8, !tbaa !95
  %33 = getelementptr inbounds nuw i8, ptr %31, i64 %32
  %34 = load i8, ptr %33, align 1, !tbaa !28
  %35 = sext i8 %34 to i32
  %36 = icmp eq i32 %35, 58
  br i1 %36, label %37, label %82

37:                                               ; preds = %28
  %38 = load ptr, ptr %7, align 8, !tbaa !16
  %39 = getelementptr inbounds nuw %struct.sapi_header_struct, ptr %38, i32 0, i32 0
  %40 = load ptr, ptr %39, align 8, !tbaa !21
  %41 = load ptr, ptr %5, align 8, !tbaa !15
  %42 = load i64, ptr %6, align 8, !tbaa !95
  %43 = call i32 @strncasecmp(ptr noundef %40, ptr noundef %41, i64 noundef %42) #16
  %44 = icmp ne i32 %43, 0
  br i1 %44, label %82, label %45

45:                                               ; preds = %37
  %46 = load ptr, ptr %9, align 8, !tbaa !153
  %47 = getelementptr inbounds nuw %struct._zend_llist_element, ptr %46, i32 0, i32 1
  %48 = load ptr, ptr %47, align 8, !tbaa !156
  %49 = icmp ne ptr %48, null
  br i1 %49, label %50, label %56

50:                                               ; preds = %45
  %51 = load ptr, ptr %8, align 8, !tbaa !153
  %52 = load ptr, ptr %9, align 8, !tbaa !153
  %53 = getelementptr inbounds nuw %struct._zend_llist_element, ptr %52, i32 0, i32 1
  %54 = load ptr, ptr %53, align 8, !tbaa !156
  %55 = getelementptr inbounds nuw %struct._zend_llist_element, ptr %54, i32 0, i32 0
  store ptr %51, ptr %55, align 8, !tbaa !154
  br label %60

56:                                               ; preds = %45
  %57 = load ptr, ptr %8, align 8, !tbaa !153
  %58 = load ptr, ptr %4, align 8, !tbaa !150
  %59 = getelementptr inbounds nuw %struct._zend_llist, ptr %58, i32 0, i32 0
  store ptr %57, ptr %59, align 8, !tbaa !152
  br label %60

60:                                               ; preds = %56, %50
  %61 = load ptr, ptr %8, align 8, !tbaa !153
  %62 = icmp ne ptr %61, null
  br i1 %62, label %63, label %69

63:                                               ; preds = %60
  %64 = load ptr, ptr %9, align 8, !tbaa !153
  %65 = getelementptr inbounds nuw %struct._zend_llist_element, ptr %64, i32 0, i32 1
  %66 = load ptr, ptr %65, align 8, !tbaa !156
  %67 = load ptr, ptr %8, align 8, !tbaa !153
  %68 = getelementptr inbounds nuw %struct._zend_llist_element, ptr %67, i32 0, i32 1
  store ptr %66, ptr %68, align 8, !tbaa !156
  br label %75

69:                                               ; preds = %60
  %70 = load ptr, ptr %9, align 8, !tbaa !153
  %71 = getelementptr inbounds nuw %struct._zend_llist_element, ptr %70, i32 0, i32 1
  %72 = load ptr, ptr %71, align 8, !tbaa !156
  %73 = load ptr, ptr %4, align 8, !tbaa !150
  %74 = getelementptr inbounds nuw %struct._zend_llist, ptr %73, i32 0, i32 1
  store ptr %72, ptr %74, align 8, !tbaa !157
  br label %75

75:                                               ; preds = %69, %63
  %76 = load ptr, ptr %7, align 8, !tbaa !16
  call void @sapi_free_header(ptr noundef %76)
  %77 = load ptr, ptr %9, align 8, !tbaa !153
  call void @_efree(ptr noundef %77)
  %78 = load ptr, ptr %4, align 8, !tbaa !150
  %79 = getelementptr inbounds nuw %struct._zend_llist, ptr %78, i32 0, i32 2
  %80 = load i64, ptr %79, align 8, !tbaa !158
  %81 = add i64 %80, -1
  store i64 %81, ptr %79, align 8, !tbaa !158
  br label %82

82:                                               ; preds = %75, %37, %28, %16
  %83 = load ptr, ptr %8, align 8, !tbaa !153
  store ptr %83, ptr %9, align 8, !tbaa !153
  br label %13

84:                                               ; preds = %13
  call void @llvm.lifetime.end.p0(i64 8, ptr %9) #15
  call void @llvm.lifetime.end.p0(i64 8, ptr %8) #15
  call void @llvm.lifetime.end.p0(i64 8, ptr %7) #15
  ret void
}

; Function Attrs: nounwind uwtable
define internal void @sapi_header_add_op(i32 noundef %0, ptr noundef %1) #0 {
  %3 = alloca i32, align 4
  %4 = alloca ptr, align 8
  %5 = alloca ptr, align 8
  %6 = alloca i8, align 1
  store i32 %0, ptr %3, align 4, !tbaa !17
  store ptr %1, ptr %4, align 8, !tbaa !16
  %7 = load ptr, ptr getelementptr inbounds nuw (%struct._sapi_module_struct, ptr @sapi_module, i32 0, i32 11), align 8, !tbaa !144
  %8 = icmp ne ptr %7, null
  br i1 %8, label %9, label %16

9:                                                ; preds = %2
  %10 = load ptr, ptr getelementptr inbounds nuw (%struct._sapi_module_struct, ptr @sapi_module, i32 0, i32 11), align 8, !tbaa !144
  %11 = load ptr, ptr %4, align 8, !tbaa !16
  %12 = load i32, ptr %3, align 4, !tbaa !17
  %13 = call i32 %10(ptr noundef %11, i32 noundef %12, ptr noundef getelementptr inbounds nuw (%struct._sapi_globals_struct, ptr @sapi_globals, i32 0, i32 2))
  %14 = and i32 1, %13
  %15 = icmp ne i32 %14, 0
  br i1 %15, label %16, label %42

16:                                               ; preds = %9, %2
  %17 = load i32, ptr %3, align 4, !tbaa !17
  %18 = icmp eq i32 %17, 0
  br i1 %18, label %19, label %40

19:                                               ; preds = %16
  call void @llvm.lifetime.start.p0(i64 8, ptr %5) #15
  %20 = load ptr, ptr %4, align 8, !tbaa !16
  %21 = getelementptr inbounds nuw %struct.sapi_header_struct, ptr %20, i32 0, i32 0
  %22 = load ptr, ptr %21, align 8, !tbaa !21
  %23 = call ptr @strchr(ptr noundef %22, i32 noundef 58) #16
  store ptr %23, ptr %5, align 8, !tbaa !15
  %24 = load ptr, ptr %5, align 8, !tbaa !15
  %25 = icmp ne ptr %24, null
  br i1 %25, label %26, label %39

26:                                               ; preds = %19
  call void @llvm.lifetime.start.p0(i64 1, ptr %6) #15
  %27 = load ptr, ptr %5, align 8, !tbaa !15
  %28 = load i8, ptr %27, align 1, !tbaa !28
  store i8 %28, ptr %6, align 1, !tbaa !28
  %29 = load ptr, ptr %5, align 8, !tbaa !15
  store i8 0, ptr %29, align 1, !tbaa !28
  %30 = load ptr, ptr %4, align 8, !tbaa !16
  %31 = getelementptr inbounds nuw %struct.sapi_header_struct, ptr %30, i32 0, i32 0
  %32 = load ptr, ptr %31, align 8, !tbaa !21
  %33 = load ptr, ptr %4, align 8, !tbaa !16
  %34 = getelementptr inbounds nuw %struct.sapi_header_struct, ptr %33, i32 0, i32 0
  %35 = load ptr, ptr %34, align 8, !tbaa !21
  %36 = call i64 @strlen(ptr noundef %35) #16
  call void @sapi_remove_header(ptr noundef getelementptr inbounds nuw (%struct._sapi_globals_struct, ptr @sapi_globals, i32 0, i32 2), ptr noundef %32, i64 noundef %36)
  %37 = load i8, ptr %6, align 1, !tbaa !28
  %38 = load ptr, ptr %5, align 8, !tbaa !15
  store i8 %37, ptr %38, align 1, !tbaa !28
  call void @llvm.lifetime.end.p0(i64 1, ptr %6) #15
  br label %39

39:                                               ; preds = %26, %19
  call void @llvm.lifetime.end.p0(i64 8, ptr %5) #15
  br label %40

40:                                               ; preds = %39, %16
  %41 = load ptr, ptr %4, align 8, !tbaa !16
  call void @zend_llist_add_element(ptr noundef getelementptr inbounds nuw (%struct._sapi_globals_struct, ptr @sapi_globals, i32 0, i32 2), ptr noundef %41)
  br label %44

42:                                               ; preds = %9
  %43 = load ptr, ptr %4, align 8, !tbaa !16
  call void @sapi_free_header(ptr noundef %43)
  br label %44

44:                                               ; preds = %42, %40
  ret void
}