; Function Attrs: nounwind uwtable
define internal fastcc void @sapi_header_add_op(i32 noundef range(i32 3, 2) %0, ptr noundef nonnull %1) unnamed_addr #0 {
  %3 = load ptr, ptr getelementptr inbounds nuw (i8, ptr @sapi_module, i64 88), align 8, !tbaa !128
  %.not = icmp eq ptr %3, null
  br i1 %.not, label %7, label %4

4:                                                ; preds = %2
  %5 = tail call i32 %3(ptr noundef nonnull %1, i32 noundef %0, ptr noundef nonnull getelementptr inbounds nuw (i8, ptr @sapi_globals, i64 160)) #19
  %6 = and i32 %5, 1
  %.not13 = icmp eq i32 %6, 0
  br i1 %.not13, label %43, label %7

7:                                                ; preds = %4, %2
  %8 = icmp eq i32 %0, 0
  br i1 %8, label %9, label %42

9:                                                ; preds = %7
  %10 = load ptr, ptr %1, align 8, !tbaa !17
  %11 = tail call ptr @strchr(ptr noundef nonnull dereferenceable(1) %10, i32 noundef 58) #20
  %.not14 = icmp eq ptr %11, null
  br i1 %.not14, label %42, label %12

12:                                               ; preds = %9
  %13 = load i8, ptr %11, align 1, !tbaa !20
  store i8 0, ptr %11, align 1, !tbaa !20
  %14 = load ptr, ptr %1, align 8, !tbaa !17
  %15 = tail call i64 @strlen(ptr noundef nonnull dereferenceable(1) %14) #20
  %16 = load ptr, ptr getelementptr inbounds nuw (i8, ptr @sapi_globals, i64 160), align 8, !tbaa !133
  %.not1.i = icmp eq ptr %16, null
  br i1 %.not1.i, label %sapi_remove_header.exit, label %.lr.ph.i

.lr.ph.i:                                         ; preds = %12, %41
  %.02.i = phi ptr [ %17, %41 ], [ %16, %12 ]
  %17 = load ptr, ptr %.02.i, align 8, !tbaa !134
  %18 = getelementptr inbounds nuw i8, ptr %.02.i, i64 24
  %19 = load i64, ptr %18, align 8, !tbaa !99
  %20 = icmp ugt i64 %19, %15
  br i1 %20, label %21, label %41

21:                                               ; preds = %.lr.ph.i
  %22 = getelementptr inbounds nuw i8, ptr %.02.i, i64 16
  %23 = load ptr, ptr %22, align 8, !tbaa !17
  %24 = getelementptr inbounds nuw i8, ptr %23, i64 %15
  %25 = load i8, ptr %24, align 1, !tbaa !20
  %26 = icmp eq i8 %25, 58
  br i1 %26, label %27, label %41

27:                                               ; preds = %21
  %28 = tail call i32 @strncasecmp(ptr noundef nonnull %23, ptr noundef nonnull readonly %14, i64 noundef %15) #20
  %.not27.i = icmp eq i32 %28, 0
  br i1 %.not27.i, label %29, label %41

29:                                               ; preds = %27
  %30 = getelementptr inbounds nuw i8, ptr %.02.i, i64 8
  %31 = load ptr, ptr %30, align 8, !tbaa !136
  %.not28.i = icmp eq ptr %31, null
  br i1 %.not28.i, label %33, label %32

32:                                               ; preds = %29
  store ptr %17, ptr %31, align 8, !tbaa !134
  br label %34

33:                                               ; preds = %29
  store ptr %17, ptr getelementptr inbounds nuw (i8, ptr @sapi_globals, i64 160), align 8, !tbaa !133
  br label %34

34:                                               ; preds = %33, %32
  %.not29.i = icmp eq ptr %17, null
  br i1 %.not29.i, label %37, label %35

35:                                               ; preds = %34
  %36 = getelementptr inbounds nuw i8, ptr %17, i64 8
  store ptr %31, ptr %36, align 8, !tbaa !136
  br label %38

37:                                               ; preds = %34
  store ptr %31, ptr getelementptr inbounds nuw (i8, ptr @sapi_globals, i64 168), align 8, !tbaa !137
  br label %38

38:                                               ; preds = %37, %35
  tail call void @_efree(ptr noundef nonnull %23) #19
  tail call void @_efree(ptr noundef nonnull %.02.i) #19
  %39 = load i64, ptr getelementptr inbounds nuw (i8, ptr @sapi_globals, i64 176), align 8, !tbaa !138
  %40 = add i64 %39, -1
  store i64 %40, ptr getelementptr inbounds nuw (i8, ptr @sapi_globals, i64 176), align 8, !tbaa !138
  br label %41

41:                                               ; preds = %38, %27, %21, %.lr.ph.i
  %.not.i = icmp eq ptr %17, null
  br i1 %.not.i, label %sapi_remove_header.exit, label %.lr.ph.i

sapi_remove_header.exit:                          ; preds = %41, %12
  store i8 %13, ptr %11, align 1, !tbaa !20
  br label %42

42:                                               ; preds = %9, %sapi_remove_header.exit, %7
  tail call void @zend_llist_add_element(ptr noundef nonnull getelementptr inbounds nuw (i8, ptr @sapi_globals, i64 160), ptr noundef nonnull %1) #19
  br label %45

43:                                               ; preds = %4
  %44 = load ptr, ptr %1, align 8, !tbaa !17
  tail call void @_efree(ptr noundef %44) #19
  br label %45

45:                                               ; preds = %43, %42
  ret void
}